; Function Attrs: mustprogress nofree norecurse nosync nounwind willreturn memory(read, inaccessiblemem: none) uwtable
define hidden noundef ptr @_ZN7datalog16relation_manager19get_relation_pluginERK6symbol(ptr noundef nonnull readonly align 8 captures(none) dereferenceable(200) %0, ptr noundef nonnull readonly align 8 captures(none) dereferenceable(8) %1) local_unnamed_addr #10 align 2 {
  %3 = getelementptr inbounds nuw i8, ptr %0, i64 24
  %4 = load ptr, ptr %3, align 8, !tbaa !27
  %5 = icmp eq ptr %4, null
  br i1 %5, label %._crit_edge, label %_ZN6vectorIPN7datalog15relation_pluginELb0EjE3endEv.exit

_ZN6vectorIPN7datalog15relation_pluginELb0EjE3endEv.exit: ; preds = %2
  %6 = getelementptr inbounds i8, ptr %4, i64 -4
  %7 = load i32, ptr %6, align 4, !tbaa !34
  %8 = zext i32 %7 to i64
  %9 = getelementptr inbounds nuw ptr, ptr %4, i64 %8
  %.not15 = icmp eq i32 %7, 0
  br i1 %.not15, label %._crit_edge, label %.lr.ph

.lr.ph:                                           ; preds = %_ZN6vectorIPN7datalog15relation_pluginELb0EjE3endEv.exit
  %10 = load ptr, ptr %1, align 8, !tbaa !307
  br label %13

11:                                               ; preds = %13
  %12 = getelementptr inbounds nuw i8, ptr %.01416, i64 8
  %.not = icmp eq ptr %12, %9
  br i1 %.not, label %._crit_edge, label %13

13:                                               ; preds = %.lr.ph, %11
  %.01416 = phi ptr [ %4, %.lr.ph ], [ %12, %11 ]
  %14 = load ptr, ptr %.01416, align 8, !tbaa !39
  %15 = getelementptr inbounds nuw i8, ptr %14, i64 16
  %16 = load ptr, ptr %15, align 8, !tbaa !307
  %17 = icmp eq ptr %16, %10
  br i1 %17, label %._crit_edge, label %11

._crit_edge:                                      ; preds = %13, %11, %2, %_ZN6vectorIPN7datalog15relation_pluginELb0EjE3endEv.exit
  %spec.select = phi ptr [ null, %_ZN6vectorIPN7datalog15relation_pluginELb0EjE3endEv.exit ], [ null, %2 ], [ null, %11 ], [ %14, %13 ]
  ret ptr %spec.select
}